target datalayout = "e-m:e-p270:32:32-p271:32:32-p272:64:64-i64:64-i128:128-f80:128-n8:16:32:64-S128"
target triple = "x86_64-pc-linux-gnu"

%struct.nameData = type { [64 x i8] }
%struct.HeapTupleData = type { i32, %struct.ItemPointerData, i32, ptr }
%struct.ItemPointerData = type { %struct.BlockIdData, i16 }
%struct.BlockIdData = type { i16, i16 }
%struct.HeapTupleHeaderData = type { %union.anon, %struct.ItemPointerData, i16, i16, i8, [0 x i8] }
%union.anon = type { %struct.HeapTupleFields }
%struct.HeapTupleFields = type { i32, i32, %union.anon.0 }
%union.anon.0 = type { i32 }
%struct.FormData_pg_opclass = type { i32, i32, %struct.nameData, i32, i32, i32, i32, i8, i32 }

@.str.1 = private unnamed_addr constant [12 x i8] c"indexcmds.c\00", align 1
@.str.40 = private unnamed_addr constant [66 x i8] c"data type %s has no default operator class for access method \22%s\22\00", align 1
@.str.41 = private unnamed_addr constant [103 x i8] c"You must specify an operator class for the index or define a default operator class for the data type.\00", align 1
@__func__.ResolveOpClass = private unnamed_addr constant [15 x i8] c"ResolveOpClass\00", align 1
@.str.42 = private unnamed_addr constant [58 x i8] c"operator class \22%s\22 does not exist for access method \22%s\22\00", align 1
@.str.43 = private unnamed_addr constant [49 x i8] c"operator class \22%s\22 does not accept data type %s\00", align 1

; Function Attrs: inlinehint nounwind uwtable
define internal ptr @GETSTRUCT(ptr noundef %0) #3 {
  %2 = alloca ptr, align 8
  store ptr %0, ptr %2, align 8
  %3 = load ptr, ptr %2, align 8
  %4 = getelementptr inbounds nuw %struct.HeapTupleData, ptr %3, i32 0, i32 3
  %5 = load ptr, ptr %4, align 8
  %6 = load ptr, ptr %2, align 8
  %7 = getelementptr inbounds nuw %struct.HeapTupleData, ptr %6, i32 0, i32 3
  %8 = load ptr, ptr %7, align 8
  %9 = getelementptr inbounds nuw %struct.HeapTupleHeaderData, ptr %8, i32 0, i32 4
  %10 = load i8, ptr %9, align 2
  %11 = zext i8 %10 to i32
  %12 = sext i32 %11 to i64
  %13 = getelementptr inbounds i8, ptr %5, i64 %12
  ret ptr %13
}

; Function Attrs: inlinehint nounwind uwtable
define internal i64 @PointerGetDatum(ptr noundef %0) #3 {
  %2 = alloca ptr, align 8
  store ptr %0, ptr %2, align 8
  %3 = load ptr, ptr %2, align 8
  %4 = ptrtoint ptr %3 to i64
  ret i64 %4
}

; Function Attrs: inlinehint nounwind uwtable
define internal i64 @ObjectIdGetDatum(i32 noundef %0) #3 {
  %2 = alloca i32, align 4
  store i32 %0, ptr %2, align 4
  %3 = load i32, ptr %2, align 4
  %4 = zext i32 %3 to i64
  ret i64 %4
}

; Function Attrs: nounwind uwtable
define dso_local i32 @ResolveOpClass(ptr noundef %0, i32 noundef %1, ptr noundef %2, i32 noundef %3) #0 {
  %5 = alloca i32, align 4
  %6 = alloca ptr, align 8
  %7 = alloca i32, align 4
  %8 = alloca ptr, align 8
  %9 = alloca i32, align 4
  %10 = alloca ptr, align 8
  %11 = alloca ptr, align 8
  %12 = alloca ptr, align 8
  %13 = alloca ptr, align 8
  %14 = alloca i32, align 4
  %15 = alloca i32, align 4
  %16 = alloca i32, align 4
  %17 = alloca i32, align 4
  store ptr %0, ptr %6, align 8
  store i32 %1, ptr %7, align 4
  store ptr %2, ptr %8, align 8
  store i32 %3, ptr %9, align 4
  call void @llvm.lifetime.start.p0(i64 8, ptr %10) #10
  call void @llvm.lifetime.start.p0(i64 8, ptr %11) #10
  call void @llvm.lifetime.start.p0(i64 8, ptr %12) #10
  call void @llvm.lifetime.start.p0(i64 8, ptr %13) #10
  call void @llvm.lifetime.start.p0(i64 4, ptr %14) #10
  call void @llvm.lifetime.start.p0(i64 4, ptr %15) #10
  %18 = load ptr, ptr %6, align 8
  %19 = icmp eq ptr %18, null
  br i1 %19, label %20, label %44

20:                                               ; preds = %4
  %21 = load i32, ptr %7, align 4
  %22 = load i32, ptr %9, align 4
  %23 = call i32 @GetDefaultOpClass(i32 noundef %21, i32 noundef %22)
  store i32 %23, ptr %14, align 4
  %24 = load i32, ptr %14, align 4
  %25 = icmp ne i32 %24, 0
  br i1 %25, label %42, label %26

26:                                               ; preds = %20
  br label %27

27:                                               ; preds = %26
  br i1 true, label %28, label %30

28:                                               ; preds = %27
  %29 = call zeroext i1 @errstart_cold(i32 noundef 21, ptr noundef null) #11
  br i1 %29, label %32, label %39

30:                                               ; preds = %27
  %31 = call zeroext i1 @errstart(i32 noundef 21, ptr noundef null)
  br i1 %31, label %32, label %39

32:                                               ; preds = %30, %28
  %33 = call i32 @errcode(i32 noundef 67137668)
  %34 = load i32, ptr %7, align 4
  %35 = call ptr @format_type_be(i32 noundef %34)
  %36 = load ptr, ptr %8, align 8
  %37 = call i32 (ptr, ...) @errmsg(ptr noundef @.str.40, ptr noundef %35, ptr noundef %36)
  %38 = call i32 (ptr, ...) @errhint(ptr noundef @.str.41)
  call void @errfinish(ptr noundef @.str.1, i32 noundef 2285, ptr noundef @__func__.ResolveOpClass)
  br label %39

39:                                               ; preds = %32, %30, %28
  unreachable

40:                                               ; No predecessors!
  br label %41

41:                                               ; preds = %40
  br label %42

42:                                               ; preds = %41, %20
  %43 = load i32, ptr %14, align 4
  store i32 %43, ptr %5, align 4
  store i32 1, ptr %16, align 4
  br label %131

44:                                               ; preds = %4
  %45 = load ptr, ptr %6, align 8
  call void @DeconstructQualifiedName(ptr noundef %45, ptr noundef %10, ptr noundef %11)
  %46 = load ptr, ptr %10, align 8
  %47 = icmp ne ptr %46, null
  br i1 %47, label %48, label %58

48:                                               ; preds = %44
  call void @llvm.lifetime.start.p0(i64 4, ptr %17) #10
  %49 = load ptr, ptr %10, align 8
  %50 = call i32 @LookupExplicitNamespace(ptr noundef %49, i1 noundef zeroext false)
  store i32 %50, ptr %17, align 4
  %51 = load i32, ptr %9, align 4
  %52 = call i64 @ObjectIdGetDatum(i32 noundef %51)
  %53 = load ptr, ptr %11, align 8
  %54 = call i64 @PointerGetDatum(ptr noundef %53)
  %55 = load i32, ptr %17, align 4
  %56 = call i64 @ObjectIdGetDatum(i32 noundef %55)
  %57 = call ptr @SearchSysCache3(i32 noundef 13, i64 noundef %52, i64 noundef %54, i64 noundef %56)
  store ptr %57, ptr %12, align 8
  call void @llvm.lifetime.end.p0(i64 4, ptr %17) #10
  br label %82

58:                                               ; preds = %44
  %59 = load i32, ptr %9, align 4
  %60 = load ptr, ptr %11, align 8
  %61 = call i32 @OpclassnameGetOpcid(i32 noundef %59, ptr noundef %60)
  store i32 %61, ptr %14, align 4
  %62 = load i32, ptr %14, align 4
  %63 = icmp ne i32 %62, 0
  br i1 %63, label %78, label %64

64:                                               ; preds = %58
  br label %65

65:                                               ; preds = %64
  br i1 true, label %66, label %68

66:                                               ; preds = %65
  %67 = call zeroext i1 @errstart_cold(i32 noundef 21, ptr noundef null) #11
  br i1 %67, label %70, label %75

68:                                               ; preds = %65
  %69 = call zeroext i1 @errstart(i32 noundef 21, ptr noundef null)
  br i1 %69, label %70, label %75

70:                                               ; preds = %68, %66
  %71 = call i32 @errcode(i32 noundef 67137668)
  %72 = load ptr, ptr %11, align 8
  %73 = load ptr, ptr %8, align 8
  %74 = call i32 (ptr, ...) @errmsg(ptr noundef @.str.42, ptr noundef %72, ptr noundef %73)
  call void @errfinish(ptr noundef @.str.1, i32 noundef 2315, ptr noundef @__func__.ResolveOpClass)
  br label %75

75:                                               ; preds = %70, %68, %66
  unreachable

76:                                               ; No predecessors!
  br label %77

77:                                               ; preds = %76
  br label %78

78:                                               ; preds = %77, %58
  %79 = load i32, ptr %14, align 4
  %80 = call i64 @ObjectIdGetDatum(i32 noundef %79)
  %81 = call ptr @SearchSysCache1(i32 noundef 14, i64 noundef %80)
  store ptr %81, ptr %12, align 8
  br label %82

82:                                               ; preds = %78, %48
  %83 = load ptr, ptr %12, align 8
  %84 = icmp ne ptr %83, null
  br i1 %84, label %100, label %85

85:                                               ; preds = %82
  br label %86

86:                                               ; preds = %85
  br i1 true, label %87, label %89

87:                                               ; preds = %86
  %88 = call zeroext i1 @errstart_cold(i32 noundef 21, ptr noundef null) #11
  br i1 %88, label %91, label %97

89:                                               ; preds = %86
  %90 = call zeroext i1 @errstart(i32 noundef 21, ptr noundef null)
  br i1 %90, label %91, label %97

91:                                               ; preds = %89, %87
  %92 = call i32 @errcode(i32 noundef 67137668)
  %93 = load ptr, ptr %6, align 8
  %94 = call ptr @NameListToString(ptr noundef %93)
  %95 = load ptr, ptr %8, align 8
  %96 = call i32 (ptr, ...) @errmsg(ptr noundef @.str.42, ptr noundef %94, ptr noundef %95)
  call void @errfinish(ptr noundef @.str.1, i32 noundef 2323, ptr noundef @__func__.ResolveOpClass)
  br label %97

97:                                               ; preds = %91, %89, %87
  unreachable

98:                                               ; No predecessors!
  br label %99

99:                                               ; preds = %98
  br label %100

100:                                              ; preds = %99, %82
  %101 = load ptr, ptr %12, align 8
  %102 = call ptr @GETSTRUCT(ptr noundef %101)
  store ptr %102, ptr %13, align 8
  %103 = load ptr, ptr %13, align 8
  %104 = getelementptr inbounds nuw %struct.FormData_pg_opclass, ptr %103, i32 0, i32 0
  %105 = load i32, ptr %104, align 4
  store i32 %105, ptr %14, align 4
  %106 = load ptr, ptr %13, align 8
  %107 = getelementptr inbounds nuw %struct.FormData_pg_opclass, ptr %106, i32 0, i32 6
  %108 = load i32, ptr %107, align 4
  store i32 %108, ptr %15, align 4
  %109 = load i32, ptr %7, align 4
  %110 = load i32, ptr %15, align 4
  %111 = call zeroext i1 @IsBinaryCoercible(i32 noundef %109, i32 noundef %110)
  br i1 %111, label %128, label %112

112:                                              ; preds = %100
  br label %113

113:                                              ; preds = %112
  br i1 true, label %114, label %116

114:                                              ; preds = %113
  %115 = call zeroext i1 @errstart_cold(i32 noundef 21, ptr noundef null) #11
  br i1 %115, label %118, label %125

116:                                              ; preds = %113
  %117 = call zeroext i1 @errstart(i32 noundef 21, ptr noundef null)
  br i1 %117, label %118, label %125

118:                                              ; preds = %116, %114
  %119 = call i32 @errcode(i32 noundef 67141764)
  %120 = load ptr, ptr %6, align 8
  %121 = call ptr @NameListToString(ptr noundef %120)
  %122 = load i32, ptr %7, align 4
  %123 = call ptr @format_type_be(i32 noundef %122)
  %124 = call i32 (ptr, ...) @errmsg(ptr noundef @.str.43, ptr noundef %121, ptr noundef %123)
  call void @errfinish(ptr noundef @.str.1, i32 noundef 2337, ptr noundef @__func__.ResolveOpClass)
  br label %125

125:                                              ; preds = %118, %116, %114
  unreachable

126:                                              ; No predecessors!
  br label %127

127:                                              ; preds = %126
  br label %128

128:                                              ; preds = %127, %100
  %129 = load ptr, ptr %12, align 8
  call void @ReleaseSysCache(ptr noundef %129)
  %130 = load i32, ptr %14, align 4
  store i32 %130, ptr %5, align 4
  store i32 1, ptr %16, align 4
  br label %131

131:                                              ; preds = %128, %42
  call void @llvm.lifetime.end.p0(i64 4, ptr %15) #10
  call void @llvm.lifetime.end.p0(i64 4, ptr %14) #10
  call void @llvm.lifetime.end.p0(i64 8, ptr %13) #10
  call void @llvm.lifetime.end.p0(i64 8, ptr %12) #10
  call void @llvm.lifetime.end.p0(i64 8, ptr %11) #10
  call void @llvm.lifetime.end.p0(i64 8, ptr %10) #10
  %132 = load i32, ptr %5, align 4
  ret i32 %132
}