; Function Attrs: nounwind uwtable
define dso_local i32 @ResolveOpClass(ptr noundef %0, i32 noundef %1, ptr noundef %2, i32 noundef %3) local_unnamed_addr #0 {
  %5 = alloca ptr, align 8
  %6 = alloca ptr, align 8
  call void @llvm.lifetime.start.p0(i64 8, ptr nonnull %5) #11
  call void @llvm.lifetime.start.p0(i64 8, ptr nonnull %6) #11
  %7 = icmp eq ptr %0, null
  br i1 %7, label %8, label %16

8:                                                ; preds = %4
  %9 = tail call i32 @GetDefaultOpClass(i32 noundef %1, i32 noundef %3)
  %.not33 = icmp eq i32 %9, 0
  br i1 %.not33, label %10, label %59

10:                                               ; preds = %8
  %11 = tail call zeroext i1 @errstart_cold(i32 noundef 21, ptr noundef null) #12
  tail call void @llvm.assume(i1 %11)
  %12 = tail call i32 @errcode(i32 noundef 67137668) #11
  %13 = tail call ptr @format_type_be(i32 noundef %1) #11
  %14 = tail call i32 (ptr, ...) @errmsg(ptr noundef nonnull @.str.40, ptr noundef %13, ptr noundef %2) #11
  %15 = tail call i32 (ptr, ...) @errhint(ptr noundef nonnull @.str.41) #11
  tail call void @errfinish(ptr noundef nonnull @.str.1, i32 noundef 2285, ptr noundef nonnull @__func__.ResolveOpClass) #11
  unreachable

16:                                               ; preds = %4
  call void @DeconstructQualifiedName(ptr noundef nonnull %0, ptr noundef nonnull %5, ptr noundef nonnull %6) #11
  %17 = load ptr, ptr %5, align 8
  %.not = icmp eq ptr %17, null
  br i1 %.not, label %25, label %18

18:                                               ; preds = %16
  %19 = call i32 @LookupExplicitNamespace(ptr noundef nonnull %17, i1 noundef zeroext false) #11
  %20 = zext i32 %3 to i64
  %21 = load ptr, ptr %6, align 8
  %22 = ptrtoint ptr %21 to i64
  %23 = zext i32 %19 to i64
  %24 = call ptr @SearchSysCache3(i32 noundef 13, i64 noundef %20, i64 noundef %22, i64 noundef %23) #11
  br label %36

25:                                               ; preds = %16
  %26 = load ptr, ptr %6, align 8
  %27 = call i32 @OpclassnameGetOpcid(i32 noundef %3, ptr noundef %26) #11
  %.not31 = icmp eq i32 %27, 0
  br i1 %.not31, label %28, label %33

28:                                               ; preds = %25
  %29 = call zeroext i1 @errstart_cold(i32 noundef 21, ptr noundef null) #12
  call void @llvm.assume(i1 %29)
  %30 = call i32 @errcode(i32 noundef 67137668) #11
  %31 = load ptr, ptr %6, align 8
  %32 = call i32 (ptr, ...) @errmsg(ptr noundef nonnull @.str.42, ptr noundef %31, ptr noundef %2) #11
  call void @errfinish(ptr noundef nonnull @.str.1, i32 noundef 2315, ptr noundef nonnull @__func__.ResolveOpClass) #11
  unreachable

33:                                               ; preds = %25
  %34 = zext i32 %27 to i64
  %35 = call ptr @SearchSysCache1(i32 noundef 14, i64 noundef %34) #11
  br label %36

36:                                               ; preds = %33, %18
  %.026 = phi ptr [ %24, %18 ], [ %35, %33 ]
  %.not32 = icmp eq ptr %.026, null
  br i1 %.not32, label %37, label %42

37:                                               ; preds = %36
  %38 = call zeroext i1 @errstart_cold(i32 noundef 21, ptr noundef null) #12
  call void @llvm.assume(i1 %38)
  %39 = call i32 @errcode(i32 noundef 67137668) #11
  %40 = call ptr @NameListToString(ptr noundef nonnull %0) #11
  %41 = call i32 (ptr, ...) @errmsg(ptr noundef nonnull @.str.42, ptr noundef %40, ptr noundef %2) #11
  call void @errfinish(ptr noundef nonnull @.str.1, i32 noundef 2323, ptr noundef nonnull @__func__.ResolveOpClass) #11
  unreachable

42:                                               ; preds = %36
  %43 = getelementptr i8, ptr %.026, i64 16
  %.026.val = load ptr, ptr %43, align 8
  %44 = getelementptr inbounds nuw i8, ptr %.026.val, i64 22
  %45 = load i8, ptr %44, align 2
  %46 = zext i8 %45 to i64
  %47 = getelementptr inbounds nuw i8, ptr %.026.val, i64 %46
  %48 = load i32, ptr %47, align 4
  %49 = getelementptr inbounds nuw i8, ptr %47, i64 84
  %50 = load i32, ptr %49, align 4
  %51 = call zeroext i1 @IsBinaryCoercible(i32 noundef %1, i32 noundef %50) #11
  br i1 %51, label %58, label %52

52:                                               ; preds = %42
  %53 = call zeroext i1 @errstart_cold(i32 noundef 21, ptr noundef null) #12
  call void @llvm.assume(i1 %53)
  %54 = call i32 @errcode(i32 noundef 67141764) #11
  %55 = call ptr @NameListToString(ptr noundef nonnull %0) #11
  %56 = call ptr @format_type_be(i32 noundef %1) #11
  %57 = call i32 (ptr, ...) @errmsg(ptr noundef nonnull @.str.43, ptr noundef %55, ptr noundef %56) #11
  call void @errfinish(ptr noundef nonnull @.str.1, i32 noundef 2337, ptr noundef nonnull @__func__.ResolveOpClass) #11
  unreachable

58:                                               ; preds = %42
  call void @ReleaseSysCache(ptr noundef nonnull %.026) #11
  br label %59

59:                                               ; preds = %8, %58
  %.0 = phi i32 [ %48, %58 ], [ %9, %8 ]
  call void @llvm.lifetime.end.p0(i64 8, ptr nonnull %6) #11
  call void @llvm.lifetime.end.p0(i64 8, ptr nonnull %5) #11
  ret i32 %.0
}